"File: Lab112_L01_8x8LEDs.c  Assembler  Version HGASM0202      Page 1


   1  0000              ; Generated by holtek-gcc v3.14, Wed Sep 13 16:00:17 2023
   2  0000              ; 
   3  0000              ; Configuration:
   4  0000              ;       without long instruction
   5  0000              ;       Single ROM, Multi-RAM
   6  0000              ;       bits_per_rom_unit:16
   7  0000              ;       with mp1
   8  0000              ;       with tbhp, address(0x9)
   9  0000              ;          Use tabrd-const
  10  0000              ;       
  11  0000              ;       
  12  0000              ;       
  13  0000              ; use 'tabrdc' instead of 'tabrd'
  14  0000              ;       
  15  0000              
  16  0000              #pragma translator "holtek-gcc 4.6.4" "3.14" "build 20130711"
  17  0000              ; Rebuild 10
  18  0000              
  19  0000              ir equ [2]
  20  0000              mp equ [3]
  21  0000              sbp equ [1]
  22  0000              acc equ [5]
  23  0000              bp equ [4]
  24  0000              tblp equ [7]
  25  0000              tbhp equ [9]
  26  0000              status equ [10]
  27  0000              c equ [10].0
  28  0000              ac equ [10].1
  29  0000              z equ [10].2
  30  0000              ov equ [10].3
  31  0000              intc equ [11]
  32  0000              
  33  0000              extern ra:byte
  34  0000              extern rb:byte
  35  0000              extern rc:byte
  36  0000              extern rd:byte
  37  0000              extern re:byte
  38  0000              extern rf:byte
  39  0000              extern rg:byte
  40  0000              extern rh:byte
  41  0000              extern _Crom2Prom:near
  42  0000              extern _Crom2PromNext:near
  43  0000              
  44  0000              RAMBANK 0 @HCCINIT, @HCCINIT0
  45  0000              
  46  0000              RAMBANK 0 @BITDATASEC, @BITDATASEC1
  47  0000              @HCCINIT	.section 'data'
  48  0000              @HCCINIT0	.section 'data'
  49  0000              @BITDATASEC	 .section 'data'
  50  0000              @BITDATASEC1	 .section 'data'
  51  0000              
  52  0000              #pragma debug scope 1 1
  53  0000              	extern __DELAY3:near
  54  0000              	extern __DELAYX3:near
  55  0000              	extern __DELAYX6:near
  56  0000              	extern __DELAYY5:near
  57  0000              	extern __DELAYY3:near
  58  0000              	extern _builtin_holtek_delay_2:byte
  59  0000              public _delay
"File: Lab112_L01_8x8LEDs.ASM  Assembler  Version HGASM0202      Page 2

  60  0000              #pragma debug scope 2 1

  21  0000              #line 21 "D:\holtek\lecture\Lab112_L01_8x8LEDs.c"
  21  0000              _delay .section 'code'
  21  0000              _delay proc
  21  0000              public _delay_2
  21  0000  0002[           local _delay_2 db 2 dup(?)	; 2,0
            00
            ]
  21  0002              #pragma debug variable 12 2 _delay_2+0 "n"
  23  0002              #line 23 "D:\holtek\lecture\Lab112_L01_8x8LEDs.c"
  23  0000  1F00     E  	clr rb
  23  0001  1F00     E  	clr rc
  23  0002  2800     R  	jmp _L2
  23  0003              _L5:
  25  0003              #line 25 "D:\holtek\lecture\Lab112_L01_8x8LEDs.c"
  25  0003              ;# 25 "D:\holtek\lecture\Lab112_L01_8x8LEDs.c" 1
  25  0003  0000        	nop
  26  0004              #line 26 "D:\holtek\lecture\Lab112_L01_8x8LEDs.c"
  26  0004              ;# 26 "D:\holtek\lecture\Lab112_L01_8x8LEDs.c" 1
  26  0004  0000        	nop
  26  0005  1F00     E  	clr ra
  26  0006              _L4:
  29  0006              #line 29 "D:\holtek\lecture\Lab112_L01_8x8LEDs.c"
  29  0006              ;# 29 "D:\holtek\lecture\Lab112_L01_8x8LEDs.c" 1
  29  0006  0000        	nop
  30  0007              #line 30 "D:\holtek\lecture\Lab112_L01_8x8LEDs.c"
  30  0007              ;# 30 "D:\holtek\lecture\Lab112_L01_8x8LEDs.c" 1
  30  0007  0000        	nop
  31  0008              #line 31 "D:\holtek\lecture\Lab112_L01_8x8LEDs.c"
  31  0008              ;# 31 "D:\holtek\lecture\Lab112_L01_8x8LEDs.c" 1
  31  0008  0000        	nop
  31  0009  1480     E  	inc ra
  27  000A              #line 27 "D:\holtek\lecture\Lab112_L01_8x8LEDs.c"
  27  000A  0700     E  	mov a,ra
  27  000B  0A04        	sub a,4
  27  000C  390A        	snz z
  27  000D  2800     R  	jmp _L4
  23  000E              #line 23 "D:\holtek\lecture\Lab112_L01_8x8LEDs.c"
  23  000E  1480     E  	inc rb
  23  000F  3D0A        	sz z
  23  0010  1480     E  	inc rc
  23  0011              _L2:
  23  0011  0700     E  	mov a,rb
  23  0012  0400     R  	xor a,_delay_2[0]
  23  0013  0700     E  	mov a,rc
  23  0014  3D0A        	sz z
  23  0015  0400     R  	xor a,_delay_2[1]
  23  0016  390A        	snz z
  23  0017  2800     R  	jmp _L5
  23  0018  0003        	ret
  23  0019              _delay endp
  23  0019              #line 23 "D:\holtek\lecture\Lab112_L01_8x8LEDs.c"
  23  0019              #pragma debug scope 1 1
  23  0019              ___smod equ [11]
  23  0019              ___pdc equ [36]
  23  0019              ___pd equ [35]
  23  0019              ___pec equ [39]
  23  0019              ___pe equ [38]
  23  0019              public _main
"File: Lab112_L01_8x8LEDs.c  Assembler  Version HGASM0202      Page 3

  23  0019              #pragma debug scope 3 1
  37  0019              #line 37 "D:\holtek\lecture\Lab112_L01_8x8LEDs.c"
  37  0019              IFDEF WITH_DEFAULT_STARTUP
  37  0019              extern _main_initial0:near
  37  0019              extern _main_startup:near
  37  0019              ENDIF
  37  0019              
  37  0019              ROMBANK 0 @start
  37  0000              @start .section com_l 'code'
  37  0000              _main_startup1:
  37  0000              @start .section com_e 'code'
  37  0000  2800     R  	jmp _main
  37  0001              
  37  0000              _main .section 'code'
  37  0000              _main proc
  37  0000  0007[           local _main_2 db 7 dup(?)
            00
            ]
  37  0007              #pragma debug variable 12 3 _main_2+2 "k"
  37  0007              #pragma debug variable 12 3 _main_2+0 "char_no"
  39  0007              #line 39 "D:\holtek\lecture\Lab112_L01_8x8LEDs.c"
  39  0000  0FC0        	mov a,192
  39  0001  008B        	mov [11],a
  40  0002              #line 40 "D:\holtek\lecture\Lab112_L01_8x8LEDs.c"
  40  0002  1F24        	clr [36]
  41  0003              #line 41 "D:\holtek\lecture\Lab112_L01_8x8LEDs.c"
  41  0003  1F23        	clr [35]
  42  0004              #line 42 "D:\holtek\lecture\Lab112_L01_8x8LEDs.c"
  42  0004  1F27        	clr [39]
  43  0005              #line 43 "D:\holtek\lecture\Lab112_L01_8x8LEDs.c"
  43  0005  1F26        	clr [38]
  43  0006              _L14:
  47  0006              #line 47 "D:\holtek\lecture\Lab112_L01_8x8LEDs.c"
  47  0006  1F00     R  	clr _main_2[0]
  47  0007  1F00     R  	clr _main_2[1]
  47  0008              _L8:
  53  0008              #line 53 "D:\holtek\lecture\Lab112_L01_8x8LEDs.c"
  53  0008  0700     R  	mov a,_main_2[0]
  53  0009  0080     R  	mov _main_2[5],a
  53  000A  0700     R  	mov a,_main_2[1]
  53  000B  0080     R  	mov _main_2[6],a
  53  000C  0F03        	mov a,3
  53  000D              _LI1:
  53  000D  340A        	clr c
  53  000E  1A80     R  	rlc _main_2[5]
  53  000F  1A80     R  	rlc _main_2[6]
  53  0010  1785        	sdz acc
  53  0011  2800     R  	jmp _LI1
  53  0012  1F00     R  	clr _main_2[4]
  53  0013              _L13:
  37  0013              #line 37 "D:\holtek\lecture\Lab112_L01_8x8LEDs.c"
  37  0013  1F00     R  	clr _main_2[2]
  37  0014  1F00     R  	clr _main_2[3]
  37  0015              _L11:
  54  0015              #line 54 "D:\holtek\lecture\Lab112_L01_8x8LEDs.c"
  54  0015  1F23        	clr [35]
  55  0016              #line 55 "D:\holtek\lecture\Lab112_L01_8x8LEDs.c"
  55  0016  1F26        	clr [38]
  56  0017              #line 56 "D:\holtek\lecture\Lab112_L01_8x8LEDs.c"
  56  0017  0F00     R  	mov a,low offset _LedTablex
"File: Lab112_L01_8x8LEDs.c  Assembler  Version HGASM0202      Page 4

  56  0018  0300     R  	add a,_main_2[2]
  56  0019  0083        	mov mp,a
  56  001A  0F00     R  	mov a,high offset _LedTablex
  56  001B  1300     R  	adc a,_main_2[3]
  56  001C  0081        	mov sbp,a
  56  001D  2000     E  	call _Crom2Prom
  56  001E  00A3        	mov [35],a
  56  001F  0F00     R  	mov a,low offset _LedTabley
  56  0020  0300     R  	add a,_main_2[5]
  56  0021  0080     E  	mov rb,a
  56  0022  0F00     R  	mov a,high offset _LedTabley
  56  0023  1300     R  	adc a,_main_2[6]
  56  0024  0080     E  	mov rc,a
  57  0025              #line 57 "D:\holtek\lecture\Lab112_L01_8x8LEDs.c"
  57  0025  0700     R  	mov a,_main_2[2]
  57  0026  0300     E  	add a,rb
  57  0027  0083        	mov mp,a
  57  0028  0700     R  	mov a,_main_2[3]
  57  0029  1300     E  	adc a,rc
  57  002A  0081        	mov sbp,a
  57  002B  2000     E  	call _Crom2Prom
  57  002C  00A6        	mov [38],a
  58  002D              #line 58 "D:\holtek\lecture\Lab112_L01_8x8LEDs.c"
  58  002D  0F0A        	mov a,10
  58  002E  0080     R  	mov _delay_2[0],a
  58  002F  1F00     R  	clr _delay_2[1]
  58  0030  2000     R  	call _delay
  51  0031              #line 51 "D:\holtek\lecture\Lab112_L01_8x8LEDs.c"
  51  0031  1480     R  	inc _main_2[2]
  51  0032  3D0A        	sz z
  51  0033  1480     R  	inc _main_2[3]
  51  0034  0700     R  	mov a,_main_2[2]
  51  0035  0C08        	xor a,8
  51  0036  0500     R  	or a,_main_2[3]
  51  0037  390A        	snz z
  51  0038  2800     R  	jmp _L11
  51  0039  1480     R  	inc _main_2[4]
  49  003A              #line 49 "D:\holtek\lecture\Lab112_L01_8x8LEDs.c"
  49  003A  0700     R  	mov a,_main_2[4]
  49  003B  0A64        	sub a,100
  49  003C  390A        	snz z
  49  003D  2800     R  	jmp _L13
  47  003E              #line 47 "D:\holtek\lecture\Lab112_L01_8x8LEDs.c"
  47  003E  1480     R  	inc _main_2[0]
  47  003F  3D0A        	sz z
  47  0040  1480     R  	inc _main_2[1]
  47  0041  0F0A        	mov a,10
  47  0042  0200     R  	sub a,_main_2[0]
  47  0043  0F00        	mov a,0
  47  0044  1200     R  	sbc a,_main_2[1]
  47  0045  380A        	snz c
  47  0046  2800     R  	jmp _L14
  47  0047  2800     R  	jmp _L8
  47  0048  2800     R  	jmp $
  47  0049              _main endp
  47  0049              
  47  0049              @dummy endp
  47  0049              
  47  0049              #line 47 "D:\holtek\lecture\Lab112_L01_8x8LEDs.c"
  47  0049              #pragma debug scope 1 1
"File: Lab112_L01_8x8LEDs.c  Assembler  Version HGASM0202      Page 5

  47  0049              public _LedTabley
  47  0000              @HCCINIT	.section 'data'
   7  0000              #line 7 "D:\holtek\lecture\Lab112_L01_8x8LEDs.c"
   7  0000              @HCCINIT .section 'data'
   7  0000              _LedTabley label byte
   7  0000              #pragma debug array 42 8 88 1
   7  0000              #pragma debug array 42 8 88 1
   7  0000              #pragma debug variable 42 1 _LedTabley "LedTabley"
   7  0000              	db 0
   7  0000              @ROMDATA_BASE .section inpage 'code'
   7  0000              	db 0
   7  0001              @HCCINIT .section 'data'
   7  0001              	db 0
   7  0001              @ROMDATA_BASE .section inpage 'code'
   7  0001              	db 0
   7  0002              @HCCINIT .section 'data'
   7  0002              	db 0
   7  0001              @ROMDATA_BASE .section inpage 'code'
   7  0001              	db 0
   7  0003              @HCCINIT .section 'data'
   7  0003              	db 127
   7  0002              @ROMDATA_BASE .section inpage 'code'
   7  0002              	db 127
   7  0004              @HCCINIT .section 'data'
   7  0004              	db 2
   7  0002              @ROMDATA_BASE .section inpage 'code'
   7  0002              	db 2
   7  0005              @HCCINIT .section 'data'
   7  0005              	db 8
   7  0003              @ROMDATA_BASE .section inpage 'code'
   7  0003              	db 8
   7  0006              @HCCINIT .section 'data'
   7  0006              	db 32
   7  0003              @ROMDATA_BASE .section inpage 'code'
   7  0003              	db 32
   7  0007              @HCCINIT .section 'data'
   7  0007              	db 127
   7  0004              @ROMDATA_BASE .section inpage 'code'
   7  0004              	db 127
   7  0008              @HCCINIT .section 'data'
   7  0008              	db 0
   7  0004              @ROMDATA_BASE .section inpage 'code'
   7  0004              	db 0
   7  0009              @HCCINIT .section 'data'
   7  0009              	db 0
   7  0005              @ROMDATA_BASE .section inpage 'code'
   7  0005              	db 0
   7  000A              @HCCINIT .section 'data'
   7  000A              	db 0
   7  0005              @ROMDATA_BASE .section inpage 'code'
   7  0005              	db 0
   7  000B              @HCCINIT .section 'data'
   7  000B              	db 127
   7  0006              @ROMDATA_BASE .section inpage 'code'
   7  0006              	db 127
   7  000C              @HCCINIT .section 'data'
   7  000C              	db 8
   7  0006              @ROMDATA_BASE .section inpage 'code'
   7  0006              	db 8
   7  000D              @HCCINIT .section 'data'
"File: Lab112_L01_8x8LEDs.c  Assembler  Version HGASM0202      Page 6

   7  000D              	db 20
   7  0007              @ROMDATA_BASE .section inpage 'code'
   7  0007              	db 20
   7  000E              @HCCINIT .section 'data'
   7  000E              	db 34
   7  0007              @ROMDATA_BASE .section inpage 'code'
   7  0007              	db 34
   7  000F              @HCCINIT .section 'data'
   7  000F              	db 65
   7  0008              @ROMDATA_BASE .section inpage 'code'
   7  0008              	db 65
   7  0010              @HCCINIT .section 'data'
   7  0010              	db 0
   7  0008              @ROMDATA_BASE .section inpage 'code'
   7  0008              	db 0
   7  0011              @HCCINIT .section 'data'
   7  0011              	db 0
   7  0009              @ROMDATA_BASE .section inpage 'code'
   7  0009              	db 0
   7  0012              @HCCINIT .section 'data'
   7  0012              	db 0
   7  0009              @ROMDATA_BASE .section inpage 'code'
   7  0009              	db 0
   7  0013              @HCCINIT .section 'data'
   7  0013              	db 127
   7  000A              @ROMDATA_BASE .section inpage 'code'
   7  000A              	db 127
   7  0014              @HCCINIT .section 'data'
   7  0014              	db 2
   7  000A              @ROMDATA_BASE .section inpage 'code'
   7  000A              	db 2
   7  0015              @HCCINIT .section 'data'
   7  0015              	db 8
   7  000B              @ROMDATA_BASE .section inpage 'code'
   7  000B              	db 8
   7  0016              @HCCINIT .section 'data'
   7  0016              	db 32
   7  000B              @ROMDATA_BASE .section inpage 'code'
   7  000B              	db 32
   7  0017              @HCCINIT .section 'data'
   7  0017              	db 127
   7  000C              @ROMDATA_BASE .section inpage 'code'
   7  000C              	db 127
   7  0018              @HCCINIT .section 'data'
   7  0018              	db 0
   7  000C              @ROMDATA_BASE .section inpage 'code'
   7  000C              	db 0
   7  0019              @HCCINIT .section 'data'
   7  0019              	db 0
   7  000D              @ROMDATA_BASE .section inpage 'code'
   7  000D              	db 0
   7  001A              @HCCINIT .section 'data'
   7  001A              	db 0
   7  000D              @ROMDATA_BASE .section inpage 'code'
   7  000D              	db 0
   7  001B              @HCCINIT .section 'data'
   7  001B              	db 63
   7  000E              @ROMDATA_BASE .section inpage 'code'
   7  000E              	db 63
   7  001C              @HCCINIT .section 'data'
"File: Lab112_L01_8x8LEDs.c  Assembler  Version HGASM0202      Page 7

   7  001C              	db 64
   7  000E              @ROMDATA_BASE .section inpage 'code'
   7  000E              	db 64
   7  001D              @HCCINIT .section 'data'
   7  001D              	db 64
   7  000F              @ROMDATA_BASE .section inpage 'code'
   7  000F              	db 64
   7  001E              @HCCINIT .section 'data'
   7  001E              	db 64
   7  000F              @ROMDATA_BASE .section inpage 'code'
   7  000F              	db 64
   7  001F              @HCCINIT .section 'data'
   7  001F              	db 63
   7  0010              @ROMDATA_BASE .section inpage 'code'
   7  0010              	db 63
   7  0020              @HCCINIT .section 'data'
   7  0020              	db 0
   7  0010              @ROMDATA_BASE .section inpage 'code'
   7  0010              	db 0
   7  0021              @HCCINIT .section 'data'
   7  0021              	db 0
   7  0011              @ROMDATA_BASE .section inpage 'code'
   7  0011              	db 0
   7  0022              @HCCINIT .section 'data'
   7  0022              	db 0
   7  0011              @ROMDATA_BASE .section inpage 'code'
   7  0011              	db 0
   7  0023              @HCCINIT .section 'data'
   7  0023              	db 127
   7  0012              @ROMDATA_BASE .section inpage 'code'
   7  0012              	db 127
   7  0024              @HCCINIT .section 'data'
   7  0024              	db 73
   7  0012              @ROMDATA_BASE .section inpage 'code'
   7  0012              	db 73
   7  0025              @HCCINIT .section 'data'
   7  0025              	db 73
   7  0013              @ROMDATA_BASE .section inpage 'code'
   7  0013              	db 73
   7  0026              @HCCINIT .section 'data'
   7  0026              	db 73
   7  0013              @ROMDATA_BASE .section inpage 'code'
   7  0013              	db 73
   7  0027              @HCCINIT .section 'data'
   7  0027              	db 73
   7  0014              @ROMDATA_BASE .section inpage 'code'
   7  0014              	db 73
   7  0028              @HCCINIT .section 'data'
   7  0028              	db 0
   7  0014              @ROMDATA_BASE .section inpage 'code'
   7  0014              	db 0
   7  0029              @HCCINIT .section 'data'
   7  0029              	db 0
   7  0015              @ROMDATA_BASE .section inpage 'code'
   7  0015              	db 0
   7  002A              @HCCINIT .section 'data'
   7  002A              	db 0
   7  0015              @ROMDATA_BASE .section inpage 'code'
   7  0015              	db 0
   7  002B              @HCCINIT .section 'data'
"File: Lab112_L01_8x8LEDs.c  Assembler  Version HGASM0202      Page 8

   7  002B              	db 127
   7  0016              @ROMDATA_BASE .section inpage 'code'
   7  0016              	db 127
   7  002C              @HCCINIT .section 'data'
   7  002C              	db 73
   7  0016              @ROMDATA_BASE .section inpage 'code'
   7  0016              	db 73
   7  002D              @HCCINIT .section 'data'
   7  002D              	db 73
   7  0017              @ROMDATA_BASE .section inpage 'code'
   7  0017              	db 73
   7  002E              @HCCINIT .section 'data'
   7  002E              	db 73
   7  0017              @ROMDATA_BASE .section inpage 'code'
   7  0017              	db 73
   7  002F              @HCCINIT .section 'data'
   7  002F              	db 73
   7  0018              @ROMDATA_BASE .section inpage 'code'
   7  0018              	db 73
   7  0030              @HCCINIT .section 'data'
   7  0030              	db 0
   7  0018              @ROMDATA_BASE .section inpage 'code'
   7  0018              	db 0
   7  0031              @HCCINIT .section 'data'
   7  0031              	db 0
   7  0019              @ROMDATA_BASE .section inpage 'code'
   7  0019              	db 0
   7  0032              @HCCINIT .section 'data'
   7  0032              	db 0
   7  0019              @ROMDATA_BASE .section inpage 'code'
   7  0019              	db 0
   7  0033              @HCCINIT .section 'data'
   7  0033              	db 127
   7  001A              @ROMDATA_BASE .section inpage 'code'
   7  001A              	db 127
   7  0034              @HCCINIT .section 'data'
   7  0034              	db 0
   7  001A              @ROMDATA_BASE .section inpage 'code'
   7  001A              	db 0
   7  0035              @HCCINIT .section 'data'
   7  0035              	db 0
   7  001B              @ROMDATA_BASE .section inpage 'code'
   7  001B              	db 0
   7  0036              @HCCINIT .section 'data'
   7  0036              	db 0
   7  001B              @ROMDATA_BASE .section inpage 'code'
   7  001B              	db 0
   7  0037              @HCCINIT .section 'data'
   7  0037              	db 0
   7  001C              @ROMDATA_BASE .section inpage 'code'
   7  001C              	db 0
   7  0038              @HCCINIT .section 'data'
   7  0038              	db 0
   7  001C              @ROMDATA_BASE .section inpage 'code'
   7  001C              	db 0
   7  0039              @HCCINIT .section 'data'
   7  0039              	db 0
   7  001D              @ROMDATA_BASE .section inpage 'code'
   7  001D              	db 0
   7  003A              @HCCINIT .section 'data'
"File: Lab112_L01_8x8LEDs.c  Assembler  Version HGASM0202      Page 9

   7  003A              	db 0
   7  001D              @ROMDATA_BASE .section inpage 'code'
   7  001D              	db 0
   7  003B              @HCCINIT .section 'data'
   7  003B              	db 127
   7  001E              @ROMDATA_BASE .section inpage 'code'
   7  001E              	db 127
   7  003C              @HCCINIT .section 'data'
   7  003C              	db 73
   7  001E              @ROMDATA_BASE .section inpage 'code'
   7  001E              	db 73
   7  003D              @HCCINIT .section 'data'
   7  003D              	db 73
   7  001F              @ROMDATA_BASE .section inpage 'code'
   7  001F              	db 73
   7  003E              @HCCINIT .section 'data'
   7  003E              	db 73
   7  001F              @ROMDATA_BASE .section inpage 'code'
   7  001F              	db 73
   7  003F              @HCCINIT .section 'data'
   7  003F              	db 121
   7  0020              @ROMDATA_BASE .section inpage 'code'
   7  0020              	db 121
   7  0040              @HCCINIT .section 'data'
   7  0040              	db 0
   7  0020              @ROMDATA_BASE .section inpage 'code'
   7  0020              	db 0
   7  0041              @HCCINIT .section 'data'
   7  0041              	db 0
   7  0021              @ROMDATA_BASE .section inpage 'code'
   7  0021              	db 0
   7  0042              @HCCINIT .section 'data'
   7  0042              	db 0
   7  0021              @ROMDATA_BASE .section inpage 'code'
   7  0021              	db 0
   7  0043              @HCCINIT .section 'data'
   7  0043              	db 127
   7  0022              @ROMDATA_BASE .section inpage 'code'
   7  0022              	db 127
   7  0044              @HCCINIT .section 'data'
   7  0044              	db 127
   7  0022              @ROMDATA_BASE .section inpage 'code'
   7  0022              	db 127
   7  0045              @HCCINIT .section 'data'
   7  0045              	db 0
   7  0023              @ROMDATA_BASE .section inpage 'code'
   7  0023              	db 0
   7  0046              @HCCINIT .section 'data'
   7  0046              	db 0
   7  0023              @ROMDATA_BASE .section inpage 'code'
   7  0023              	db 0
   7  0047              @HCCINIT .section 'data'
   7  0047              	db 0
   7  0024              @ROMDATA_BASE .section inpage 'code'
   7  0024              	db 0
   7  0048              @HCCINIT .section 'data'
   7  0048              	db 0
   7  0024              @ROMDATA_BASE .section inpage 'code'
   7  0024              	db 0
   7  0049              @HCCINIT .section 'data'
"File: Lab112_L01_8x8LEDs.c  Assembler  Version HGASM0202      Page 10

   7  0049              	db 0
   7  0025              @ROMDATA_BASE .section inpage 'code'
   7  0025              	db 0
   7  004A              @HCCINIT .section 'data'
   7  004A              	db 0
   7  0025              @ROMDATA_BASE .section inpage 'code'
   7  0025              	db 0
   7  004B              @HCCINIT .section 'data'
   7  004B              	db 121
   7  0026              @ROMDATA_BASE .section inpage 'code'
   7  0026              	db 121
   7  004C              @HCCINIT .section 'data'
   7  004C              	db 73
   7  0026              @ROMDATA_BASE .section inpage 'code'
   7  0026              	db 73
   7  004D              @HCCINIT .section 'data'
   7  004D              	db 73
   7  0027              @ROMDATA_BASE .section inpage 'code'
   7  0027              	db 73
   7  004E              @HCCINIT .section 'data'
   7  004E              	db 73
   7  0027              @ROMDATA_BASE .section inpage 'code'
   7  0027              	db 73
   7  004F              @HCCINIT .section 'data'
   7  004F              	db 79
   7  0028              @ROMDATA_BASE .section inpage 'code'
   7  0028              	db 79
   7  0050              @HCCINIT .section 'data'
   7  0050              	db 0
   7  0028              @ROMDATA_BASE .section inpage 'code'
   7  0028              	db 0
   7  0051              @HCCINIT .section 'data'
   7  0051              	db 0
   7  0029              @ROMDATA_BASE .section inpage 'code'
   7  0029              	db 0
   7  0052              @HCCINIT .section 'data'
   7  0052              	db 0
   7  0029              @ROMDATA_BASE .section inpage 'code'
   7  0029              	db 0
   7  0053              @HCCINIT .section 'data'
   7  0053              	db 127
   7  002A              @ROMDATA_BASE .section inpage 'code'
   7  002A              	db 127
   7  0054              @HCCINIT .section 'data'
   7  0054              	db 65
   7  002A              @ROMDATA_BASE .section inpage 'code'
   7  002A              	db 65
   7  0055              @HCCINIT .section 'data'
   7  0055              	db 65
   7  002B              @ROMDATA_BASE .section inpage 'code'
   7  002B              	db 65
   7  0056              @HCCINIT .section 'data'
   7  0056              	db 65
   7  002B              @ROMDATA_BASE .section inpage 'code'
   7  002B              	db 65
   7  0057              @HCCINIT .section 'data'
   7  0057              	db 127
   7  002C              @ROMDATA_BASE .section inpage 'code'
   7  002C              	db 127
   7  0058              @HCCINIT .section 'data'
"File: Lab112_L01_8x8LEDs.c  Assembler  Version HGASM0202      Page 11

   7  0058              public _LedTablex
   6  0058              #line 6 "D:\holtek\lecture\Lab112_L01_8x8LEDs.c"
   6  0058              @HCCINIT .section 'data'
   6  0058              _LedTablex label byte
   6  0058              #pragma debug array 43 8 8 1
   6  0058              #pragma debug array 43 8 8 1
   6  0058              #pragma debug variable 43 1 _LedTablex "LedTablex"
   6  0058              	db 1
   6  002C              @ROMDATA_BASE .section inpage 'code'
   6  002C              	db 1
   6  0059              @HCCINIT .section 'data'
   6  0059              	db 2
   6  002D              @ROMDATA_BASE .section inpage 'code'
   6  002D              	db 2
   6  005A              @HCCINIT .section 'data'
   6  005A              	db 4
   6  002D              @ROMDATA_BASE .section inpage 'code'
   6  002D              	db 4
   6  005B              @HCCINIT .section 'data'
   6  005B              	db 8
   6  002E              @ROMDATA_BASE .section inpage 'code'
   6  002E              	db 8
   6  005C              @HCCINIT .section 'data'
   6  005C              	db 16
   6  002E              @ROMDATA_BASE .section inpage 'code'
   6  002E              	db 16
   6  005D              @HCCINIT .section 'data'
   6  005D              	db 32
   6  002F              @ROMDATA_BASE .section inpage 'code'
   6  002F              	db 32
   6  005E              @HCCINIT .section 'data'
   6  005E              	db 64
   6  002F              @ROMDATA_BASE .section inpage 'code'
   6  002F              	db 64
   6  005F              @HCCINIT .section 'data'
   6  005F              	db -128
   6  0030              @ROMDATA_BASE .section inpage 'code'
   6  0030              	db -128
   6  0060              @HCCINIT .section 'data'
   6  0060              #pragma debug struct_end
   6  0060              #pragma debug struct_end
   6  0060              #pragma debug union_end
   6  0060              #pragma debug union_end
   6  0060              #pragma debug variable 45 1 ___smod "__smod" 1
   6  0060              #pragma debug struct_end
   6  0060              #pragma debug struct_end
   6  0060              #pragma debug union_end
   6  0060              #pragma debug union_end
   6  0060              #pragma debug variable 47 1 ___pd "__pd" 1
   6  0060              #pragma debug struct_end
   6  0060              #pragma debug struct_end
   6  0060              #pragma debug union_end
   6  0060              #pragma debug union_end
   6  0060              #pragma debug variable 49 1 ___pdc "__pdc" 1
   6  0060              #pragma debug struct_end
   6  0060              #pragma debug struct_end
   6  0060              #pragma debug union_end
   6  0060              #pragma debug union_end
   6  0060              #pragma debug variable 51 1 ___pe "__pe" 1
   6  0060              #pragma debug struct_end
"File: Lab112_L01_8x8LEDs.c  Assembler  Version HGASM0202      Page 12

   6  0060              #pragma debug struct_end
   6  0060              #pragma debug union_end
   6  0060              #pragma debug union_end
   6  0060              #pragma debug variable 53 1 ___pec "__pec" 1
  37  0060              #line 37 "D:\holtek\lecture\Lab112_L01_8x8LEDs.c"
  37  0000              @code .section at 0 'code'
  37  0000  2800     R  	jmp _main_startup1
  37  0001              
  37  0001              
  37  0001              ; 
  37  0001              ; Generated by holtek-gcc v3.14, Wed Sep 13 16:00:17 2023
  37  0001              ; Rebuild 10
  37  0001              ; end of file


        0 Errors, 0